target datalayout = "e-m:e-p270:32:32-p271:32:32-p272:64:64-i64:64-i128:128-f80:128-n8:16:32:64-S128"
target triple = "x86_64-pc-linux-gnu"

; Function Attrs: nounwind uwtable
define dso_local i32 @rleStringToUCharArray(ptr noundef %0, i32 noundef %1, ptr noundef %2, i32 noundef %3, ptr noundef %4) #0 {
  %6 = alloca i32, align 4
  %7 = alloca ptr, align 8
  %8 = alloca i32, align 4
  %9 = alloca ptr, align 8
  %10 = alloca i32, align 4
  %11 = alloca ptr, align 8
  %12 = alloca i32, align 4
  %13 = alloca i32, align 4
  %14 = alloca i32, align 4
  %15 = alloca i32, align 4
  %16 = alloca i16, align 2
  %17 = alloca i32, align 4
  %18 = alloca i16, align 2
  %19 = alloca i32, align 4
  store ptr %0, ptr %7, align 8, !tbaa !4
  store i32 %1, ptr %8, align 4, !tbaa !9
  store ptr %2, ptr %9, align 8, !tbaa !4
  store i32 %3, ptr %10, align 4, !tbaa !9
  store ptr %4, ptr %11, align 8, !tbaa !11
  call void @llvm.lifetime.start.p0(i64 4, ptr %12) #4
  store i32 0, ptr %12, align 4, !tbaa !9
  call void @llvm.lifetime.start.p0(i64 4, ptr %13) #4
  store i32 0, ptr %13, align 4, !tbaa !9
  call void @llvm.lifetime.start.p0(i64 4, ptr %14) #4
  store i32 2, ptr %14, align 4, !tbaa !9
  %20 = load ptr, ptr %11, align 8, !tbaa !11
  %21 = icmp ne ptr %20, null
  br i1 %21, label %22, label %26

22:                                               ; preds = %5
  %23 = load ptr, ptr %11, align 8, !tbaa !11
  %24 = load i32, ptr %23, align 4, !tbaa !9
  %25 = icmp sgt i32 %24, 0
  br i1 %25, label %26, label %27

26:                                               ; preds = %22, %5
  store i32 0, ptr %6, align 4
  store i32 1, ptr %15, align 4
  br label %134

27:                                               ; preds = %22
  %28 = load i32, ptr %8, align 4, !tbaa !9
  %29 = icmp eq i32 %28, -1
  br i1 %29, label %30, label %33

30:                                               ; preds = %27
  %31 = load ptr, ptr %7, align 8, !tbaa !4
  %32 = call i32 @u_strlen_77(ptr noundef %31)
  store i32 %32, ptr %8, align 4, !tbaa !9
  br label %33

33:                                               ; preds = %30, %27
  %34 = load i32, ptr %8, align 4, !tbaa !9
  %35 = icmp sle i32 %34, 2
  br i1 %35, label %36, label %37

36:                                               ; preds = %33
  store i32 2, ptr %6, align 4
  store i32 1, ptr %15, align 4
  br label %134

37:                                               ; preds = %33
  %38 = load ptr, ptr %7, align 8, !tbaa !4
  %39 = getelementptr inbounds i16, ptr %38, i64 0
  %40 = load i16, ptr %39, align 2, !tbaa !12
  %41 = zext i16 %40 to i32
  %42 = shl i32 %41, 16
  %43 = load ptr, ptr %7, align 8, !tbaa !4
  %44 = getelementptr inbounds i16, ptr %43, i64 1
  %45 = load i16, ptr %44, align 2, !tbaa !12
  %46 = zext i16 %45 to i32
  %47 = or i32 %42, %46
  store i32 %47, ptr %12, align 4, !tbaa !9
  %48 = load ptr, ptr %9, align 8, !tbaa !4
  %49 = icmp eq ptr %48, null
  br i1 %49, label %50, label %52

50:                                               ; preds = %37
  %51 = load i32, ptr %12, align 4, !tbaa !9
  store i32 %51, ptr %6, align 4
  store i32 1, ptr %15, align 4
  br label %134

52:                                               ; preds = %37
  %53 = load i32, ptr %10, align 4, !tbaa !9
  %54 = load i32, ptr %12, align 4, !tbaa !9
  %55 = icmp slt i32 %53, %54
  br i1 %55, label %56, label %59

56:                                               ; preds = %52
  %57 = load ptr, ptr %11, align 8, !tbaa !11
  store i32 15, ptr %57, align 4, !tbaa !9
  %58 = load i32, ptr %12, align 4, !tbaa !9
  store i32 %58, ptr %6, align 4
  store i32 1, ptr %15, align 4
  br label %134

59:                                               ; preds = %52
  br label %60

60:                                               ; preds = %123, %59
  %61 = load i32, ptr %14, align 4, !tbaa !9
  %62 = load i32, ptr %8, align 4, !tbaa !9
  %63 = icmp slt i32 %61, %62
  br i1 %63, label %64, label %126

64:                                               ; preds = %60
  call void @llvm.lifetime.start.p0(i64 2, ptr %16) #4
  %65 = load ptr, ptr %7, align 8, !tbaa !4
  %66 = load i32, ptr %14, align 4, !tbaa !9
  %67 = sext i32 %66 to i64
  %68 = getelementptr inbounds i16, ptr %65, i64 %67
  %69 = load i16, ptr %68, align 2, !tbaa !12
  store i16 %69, ptr %16, align 2, !tbaa !12
  %70 = load i16, ptr %16, align 2, !tbaa !12
  %71 = zext i16 %70 to i32
  %72 = icmp eq i32 %71, 42405
  br i1 %72, label %73, label %115

73:                                               ; preds = %64
  %74 = load ptr, ptr %7, align 8, !tbaa !4
  %75 = load i32, ptr %14, align 4, !tbaa !9
  %76 = add nsw i32 %75, 1
  store i32 %76, ptr %14, align 4, !tbaa !9
  %77 = sext i32 %76 to i64
  %78 = getelementptr inbounds i16, ptr %74, i64 %77
  %79 = load i16, ptr %78, align 2, !tbaa !12
  store i16 %79, ptr %16, align 2, !tbaa !12
  %80 = load i16, ptr %16, align 2, !tbaa !12
  %81 = zext i16 %80 to i32
  %82 = icmp eq i32 %81, 42405
  br i1 %82, label %83, label %90

83:                                               ; preds = %73
  %84 = load i16, ptr %16, align 2, !tbaa !12
  %85 = load ptr, ptr %9, align 8, !tbaa !4
  %86 = load i32, ptr %13, align 4, !tbaa !9
  %87 = add nsw i32 %86, 1
  store i32 %87, ptr %13, align 4, !tbaa !9
  %88 = sext i32 %86 to i64
  %89 = getelementptr inbounds i16, ptr %85, i64 %88
  store i16 %84, ptr %89, align 2, !tbaa !12
  br label %114

90:                                               ; preds = %73
  call void @llvm.lifetime.start.p0(i64 4, ptr %17) #4
  %91 = load i16, ptr %16, align 2, !tbaa !12
  %92 = zext i16 %91 to i32
  store i32 %92, ptr %17, align 4, !tbaa !9
  call void @llvm.lifetime.start.p0(i64 2, ptr %18) #4
  %93 = load ptr, ptr %7, align 8, !tbaa !4
  %94 = load i32, ptr %14, align 4, !tbaa !9
  %95 = add nsw i32 %94, 1
  store i32 %95, ptr %14, align 4, !tbaa !9
  %96 = sext i32 %95 to i64
  %97 = getelementptr inbounds i16, ptr %93, i64 %96
  %98 = load i16, ptr %97, align 2, !tbaa !12
  store i16 %98, ptr %18, align 2, !tbaa !12
  call void @llvm.lifetime.start.p0(i64 4, ptr %19) #4
  store i32 0, ptr %19, align 4, !tbaa !9
  br label %99

99:                                               ; preds = %110, %90
  %100 = load i32, ptr %19, align 4, !tbaa !9
  %101 = load i32, ptr %17, align 4, !tbaa !9
  %102 = icmp slt i32 %100, %101
  br i1 %102, label %103, label %113

103:                                              ; preds = %99
  %104 = load i16, ptr %18, align 2, !tbaa !12
  %105 = load ptr, ptr %9, align 8, !tbaa !4
  %106 = load i32, ptr %13, align 4, !tbaa !9
  %107 = add nsw i32 %106, 1
  store i32 %107, ptr %13, align 4, !tbaa !9
  %108 = sext i32 %106 to i64
  %109 = getelementptr inbounds i16, ptr %105, i64 %108
  store i16 %104, ptr %109, align 2, !tbaa !12
  br label %110

110:                                              ; preds = %103
  %111 = load i32, ptr %19, align 4, !tbaa !9
  %112 = add nsw i32 %111, 1
  store i32 %112, ptr %19, align 4, !tbaa !9
  br label %99, !llvm.loop !22

113:                                              ; preds = %99
  call void @llvm.lifetime.end.p0(i64 4, ptr %19) #4
  call void @llvm.lifetime.end.p0(i64 2, ptr %18) #4
  call void @llvm.lifetime.end.p0(i64 4, ptr %17) #4
  br label %114

114:                                              ; preds = %113, %83
  br label %122

115:                                              ; preds = %64
  %116 = load i16, ptr %16, align 2, !tbaa !12
  %117 = load ptr, ptr %9, align 8, !tbaa !4
  %118 = load i32, ptr %13, align 4, !tbaa !9
  %119 = add nsw i32 %118, 1
  store i32 %119, ptr %13, align 4, !tbaa !9
  %120 = sext i32 %118 to i64
  %121 = getelementptr inbounds i16, ptr %117, i64 %120
  store i16 %116, ptr %121, align 2, !tbaa !12
  br label %122

122:                                              ; preds = %115, %114
  call void @llvm.lifetime.end.p0(i64 2, ptr %16) #4
  br label %123

123:                                              ; preds = %122
  %124 = load i32, ptr %14, align 4, !tbaa !9
  %125 = add nsw i32 %124, 1
  store i32 %125, ptr %14, align 4, !tbaa !9
  br label %60, !llvm.loop !23

126:                                              ; preds = %60
  %127 = load i32, ptr %13, align 4, !tbaa !9
  %128 = load i32, ptr %12, align 4, !tbaa !9
  %129 = icmp ne i32 %127, %128
  br i1 %129, label %130, label %132

130:                                              ; preds = %126
  %131 = load ptr, ptr %11, align 8, !tbaa !11
  store i32 5, ptr %131, align 4, !tbaa !9
  br label %132

132:                                              ; preds = %130, %126
  %133 = load i32, ptr %12, align 4, !tbaa !9
  store i32 %133, ptr %6, align 4
  store i32 1, ptr %15, align 4
  br label %134

134:                                              ; preds = %132, %56, %50, %36, %26
  call void @llvm.lifetime.end.p0(i64 4, ptr %14) #4
  call void @llvm.lifetime.end.p0(i64 4, ptr %13) #4
  call void @llvm.lifetime.end.p0(i64 4, ptr %12) #4
  %135 = load i32, ptr %6, align 4
  ret i32 %135
}