; Function Attrs: nounwind uwtable
define dso_local i32 @rleStringToUCharArray(ptr noundef %0, i32 noundef %1, ptr noundef writeonly %2, i32 noundef %3, ptr noundef %4) local_unnamed_addr #3 {
  %.not = icmp eq ptr %4, null
  br i1 %.not, label %56, label %6

6:                                                ; preds = %5
  %7 = load i32, ptr %4, align 4, !tbaa !8
  %8 = icmp sgt i32 %7, 0
  br i1 %8, label %56, label %9

9:                                                ; preds = %6
  %10 = icmp eq i32 %1, -1
  br i1 %10, label %11, label %13

11:                                               ; preds = %9
  %12 = tail call i32 @u_strlen_77(ptr noundef %0) #6
  br label %13

13:                                               ; preds = %11, %9
  %.042 = phi i32 [ %12, %11 ], [ %1, %9 ]
  %14 = icmp slt i32 %.042, 3
  br i1 %14, label %56, label %15

15:                                               ; preds = %13
  %16 = load i16, ptr %0, align 2, !tbaa !4
  %17 = zext i16 %16 to i32
  %18 = shl nuw i32 %17, 16
  %19 = getelementptr inbounds nuw i8, ptr %0, i64 2
  %20 = load i16, ptr %19, align 2, !tbaa !4
  %21 = zext i16 %20 to i32
  %22 = or disjoint i32 %18, %21
  %23 = icmp eq ptr %2, null
  br i1 %23, label %56, label %24

24:                                               ; preds = %15
  %25 = icmp slt i32 %3, %22
  br i1 %25, label %.sink.split, label %.lr.ph56

.lr.ph56:                                         ; preds = %24, %.loopexit
  %.04355 = phi i32 [ %54, %.loopexit ], [ 2, %24 ]
  %.04454 = phi i32 [ %.2, %.loopexit ], [ 0, %24 ]
  %26 = sext i32 %.04355 to i64
  %27 = getelementptr inbounds i16, ptr %0, i64 %26
  %28 = load i16, ptr %27, align 2, !tbaa !4
  %29 = icmp eq i16 %28, -23131
  br i1 %29, label %30, label %49

30:                                               ; preds = %.lr.ph56
  %31 = add nsw i32 %.04355, 1
  %32 = sext i32 %31 to i64
  %33 = getelementptr inbounds i16, ptr %0, i64 %32
  %34 = load i16, ptr %33, align 2, !tbaa !4
  %35 = zext i16 %34 to i32
  %36 = icmp eq i16 %34, -23131
  br i1 %36, label %37, label %41

37:                                               ; preds = %30
  %38 = add nsw i32 %.04454, 1
  %39 = sext i32 %.04454 to i64
  %40 = getelementptr inbounds i16, ptr %2, i64 %39
  store i16 -23131, ptr %40, align 2, !tbaa !4
  br label %.loopexit

41:                                               ; preds = %30
  %42 = add nsw i32 %.04355, 2
  %43 = sext i32 %42 to i64
  %44 = getelementptr inbounds i16, ptr %0, i64 %43
  %45 = load i16, ptr %44, align 2, !tbaa !4
  %.not58 = icmp eq i16 %34, 0
  br i1 %.not58, label %.loopexit, label %.lr.ph.preheader

.lr.ph.preheader:                                 ; preds = %41
  %46 = sext i32 %.04454 to i64
  br label %.lr.ph

.lr.ph:                                           ; preds = %.lr.ph.preheader, %.lr.ph
  %indvars.iv = phi i64 [ %46, %.lr.ph.preheader ], [ %indvars.iv.next, %.lr.ph ]
  %.053 = phi i32 [ 0, %.lr.ph.preheader ], [ %48, %.lr.ph ]
  %indvars.iv.next = add nsw i64 %indvars.iv, 1
  %47 = getelementptr inbounds i16, ptr %2, i64 %indvars.iv
  store i16 %45, ptr %47, align 2, !tbaa !4
  %48 = add nuw nsw i32 %.053, 1
  %exitcond.not = icmp eq i32 %48, %35
  br i1 %exitcond.not, label %.loopexit.loopexit, label %.lr.ph, !llvm.loop !18

49:                                               ; preds = %.lr.ph56
  %50 = add nsw i32 %.04454, 1
  %51 = sext i32 %.04454 to i64
  %52 = getelementptr inbounds i16, ptr %2, i64 %51
  store i16 %28, ptr %52, align 2, !tbaa !4
  br label %.loopexit

.loopexit.loopexit:                               ; preds = %.lr.ph
  %53 = trunc nsw i64 %indvars.iv.next to i32
  br label %.loopexit

.loopexit:                                        ; preds = %.loopexit.loopexit, %41, %37, %49
  %.2 = phi i32 [ %38, %37 ], [ %50, %49 ], [ %.04454, %41 ], [ %53, %.loopexit.loopexit ]
  %.1 = phi i32 [ %31, %37 ], [ %.04355, %49 ], [ %42, %41 ], [ %42, %.loopexit.loopexit ]
  %54 = add nsw i32 %.1, 1
  %55 = icmp slt i32 %54, %.042
  br i1 %55, label %.lr.ph56, label %._crit_edge, !llvm.loop !19

._crit_edge:                                      ; preds = %.loopexit
  %.not51 = icmp eq i32 %.2, %22
  br i1 %.not51, label %56, label %.sink.split

.sink.split:                                      ; preds = %._crit_edge, %24
  %.sink = phi i32 [ 15, %24 ], [ 5, %._crit_edge ]
  store i32 %.sink, ptr %4, align 4, !tbaa !8
  br label %56

56:                                               ; preds = %.sink.split, %._crit_edge, %15, %13, %5, %6
  %.041 = phi i32 [ 0, %6 ], [ 0, %5 ], [ 2, %13 ], [ %22, %15 ], [ %22, %._crit_edge ], [ %22, %.sink.split ]
  ret i32 %.041
}